target datalayout = "e-m:e-p270:32:32-p271:32:32-p272:64:64-i64:64-i128:128-f80:128-n8:16:32:64-S128"
target triple = "x86_64-pc-linux-gnu"

%struct.evp_pkey_asn1_method_st = type { i32, i32, i64, ptr, ptr, ptr, ptr, ptr, ptr, ptr, ptr, ptr, ptr, ptr, ptr, ptr, ptr, ptr, ptr, ptr, ptr, ptr, ptr, ptr, ptr, ptr, ptr, ptr, ptr, ptr, ptr, ptr, ptr, ptr, ptr, ptr, ptr, ptr, ptr, ptr, ptr }
%struct.evp_pkey_st = type { i32, i32, ptr, ptr, ptr, %union.legacy_pkey_st, %union.legacy_pkey_st, %struct.CRYPTO_REF_COUNT, ptr, ptr, i32, i8, %struct.crypto_ex_data_st, ptr, ptr, i64, ptr, i64, %struct.anon }
%union.legacy_pkey_st = type { ptr }
%struct.CRYPTO_REF_COUNT = type { i32 }
%struct.crypto_ex_data_st = type { ptr, ptr }
%struct.anon = type { i32, i32, i32 }

; Function Attrs: nounwind uwtable
define internal i32 @ecx_priv_decode_ex(ptr noundef %0, ptr noundef %1, ptr noundef %2, ptr noundef %3) #0 {
  %5 = alloca ptr, align 8
  %6 = alloca ptr, align 8
  %7 = alloca ptr, align 8
  %8 = alloca ptr, align 8
  %9 = alloca i32, align 4
  %10 = alloca ptr, align 8
  store ptr %0, ptr %5, align 8, !tbaa !3
  store ptr %1, ptr %6, align 8, !tbaa !38
  store ptr %2, ptr %7, align 8, !tbaa !50
  store ptr %3, ptr %8, align 8, !tbaa !14
  call void @llvm.lifetime.start.p0(i64 4, ptr %9) #4
  store i32 0, ptr %9, align 4, !tbaa !10
  call void @llvm.lifetime.start.p0(i64 8, ptr %10) #4
  %11 = load ptr, ptr %6, align 8, !tbaa !38
  %12 = load ptr, ptr %7, align 8, !tbaa !50
  %13 = load ptr, ptr %8, align 8, !tbaa !14
  %14 = call ptr @ossl_ecx_key_from_pkcs8(ptr noundef %11, ptr noundef %12, ptr noundef %13)
  store ptr %14, ptr %10, align 8, !tbaa !31
  %15 = load ptr, ptr %10, align 8, !tbaa !31
  %16 = icmp ne ptr %15, null
  br i1 %16, label %17, label %26

17:                                               ; preds = %4
  store i32 1, ptr %9, align 4, !tbaa !10
  %18 = load ptr, ptr %5, align 8, !tbaa !3
  %19 = load ptr, ptr %5, align 8, !tbaa !3
  %20 = getelementptr inbounds nuw %struct.evp_pkey_st, ptr %19, i32 0, i32 2
  %21 = load ptr, ptr %20, align 8, !tbaa !16
  %22 = getelementptr inbounds nuw %struct.evp_pkey_asn1_method_st, ptr %21, i32 0, i32 0
  %23 = load i32, ptr %22, align 8, !tbaa !29
  %24 = load ptr, ptr %10, align 8, !tbaa !31
  %25 = call i32 @EVP_PKEY_assign(ptr noundef %18, i32 noundef %23, ptr noundef %24)
  br label %26

26:                                               ; preds = %17, %4
  %27 = load i32, ptr %9, align 4, !tbaa !10
  call void @llvm.lifetime.end.p0(i64 8, ptr %10) #4
  call void @llvm.lifetime.end.p0(i64 4, ptr %9) #4
  ret i32 %27
}