; Function Attrs: nounwind uwtable
define internal range(i32 0, 2) i32 @ecx_priv_decode_ex(ptr noundef %0, ptr noundef %1, ptr noundef %2, ptr noundef %3) #0 {
  %5 = tail call ptr @ossl_ecx_key_from_pkcs8(ptr noundef %1, ptr noundef %2, ptr noundef %3) #8
  %.not = icmp eq ptr %5, null
  br i1 %.not, label %11, label %6

6:                                                ; preds = %4
  %7 = getelementptr inbounds nuw i8, ptr %0, i64 8
  %8 = load ptr, ptr %7, align 8, !tbaa !12
  %9 = load i32, ptr %8, align 8, !tbaa !25
  %10 = tail call i32 @EVP_PKEY_assign(ptr noundef %0, i32 noundef %9, ptr noundef nonnull %5) #8
  br label %11

11:                                               ; preds = %6, %4
  %.0 = phi i32 [ 1, %6 ], [ 0, %4 ]
  ret i32 %.0
}